; Function Attrs: nounwind uwtable
define void @Pdr_ManPrintClauses(ptr noundef readonly captures(none) %0, i32 noundef %1) local_unnamed_addr #0 {
  %3 = getelementptr inbounds nuw i8, ptr %0, i64 112
  %4 = load ptr, ptr %3, align 8
  %5 = getelementptr i8, ptr %4, i64 4
  %.val1926 = load i32, ptr %5, align 4
  %6 = icmp slt i32 %1, %.val1926
  br i1 %6, label %.lr.ph29, label %.critedge

.lr.ph29:                                         ; preds = %2
  %7 = getelementptr inbounds nuw i8, ptr %0, i64 8
  %8 = sext i32 %1 to i64
  br label %9

9:                                                ; preds = %.lr.ph29, %.critedge2
  %indvars.iv31 = phi i64 [ %8, %.lr.ph29 ], [ %indvars.iv.next32, %.critedge2 ]
  %10 = phi ptr [ %4, %.lr.ph29 ], [ %33, %.critedge2 ]
  %.028 = phi i32 [ 0, %.lr.ph29 ], [ %.1.lcssa, %.critedge2 ]
  %11 = getelementptr i8, ptr %10, i64 8
  %.val20 = load ptr, ptr %11, align 8
  %12 = getelementptr inbounds ptr, ptr %.val20, i64 %indvars.iv31
  %13 = load ptr, ptr %12, align 8
  %14 = getelementptr inbounds nuw i8, ptr %13, i64 4
  %15 = load i32, ptr %14, align 4
  %16 = icmp slt i32 %15, 2
  br i1 %16, label %Vec_PtrSort.exit, label %17

17:                                               ; preds = %9
  %18 = getelementptr inbounds nuw i8, ptr %13, i64 8
  %19 = load ptr, ptr %18, align 8
  %20 = zext nneg i32 %15 to i64
  tail call void @qsort(ptr noundef %19, i64 noundef %20, i64 noundef 8, ptr noundef nonnull @Pdr_SetCompare) #18
  %.val23.pre = load i32, ptr %14, align 4
  br label %Vec_PtrSort.exit

Vec_PtrSort.exit:                                 ; preds = %9, %17
  %.val23 = phi i32 [ %15, %9 ], [ %.val23.pre, %17 ]
  %21 = icmp sgt i32 %.val23, 0
  br i1 %21, label %.lr.ph, label %.critedge2

.lr.ph:                                           ; preds = %Vec_PtrSort.exit
  %22 = getelementptr i8, ptr %13, i64 8
  %23 = trunc nsw i64 %indvars.iv31 to i32
  br label %24

24:                                               ; preds = %.lr.ph, %24
  %indvars.iv = phi i64 [ 0, %.lr.ph ], [ %indvars.iv.next, %24 ]
  %.125 = phi i32 [ %.028, %.lr.ph ], [ %27, %24 ]
  %.val22 = load ptr, ptr %22, align 8
  %25 = getelementptr inbounds nuw ptr, ptr %.val22, i64 %indvars.iv
  %26 = load ptr, ptr %25, align 8
  %27 = add nsw i32 %.125, 1
  tail call void (i32, ptr, ...) @Abc_Print(i32 poison, ptr noundef nonnull @.str.19, i32 noundef %.125, i32 noundef %23)
  %28 = load ptr, ptr @stdout, align 8
  %29 = load ptr, ptr %7, align 8
  %30 = getelementptr i8, ptr %29, i64 104
  %.val21 = load i32, ptr %30, align 8
  tail call void @Pdr_SetPrint(ptr noundef %28, ptr noundef %26, i32 noundef %.val21, ptr noundef null) #18
  tail call void (i32, ptr, ...) @Abc_Print(i32 poison, ptr noundef nonnull @.str.6)
  %indvars.iv.next = add nuw nsw i64 %indvars.iv, 1
  %.val = load i32, ptr %14, align 4
  %31 = sext i32 %.val to i64
  %32 = icmp slt i64 %indvars.iv.next, %31
  br i1 %32, label %24, label %.critedge2, !llvm.loop !16

.critedge2:                                       ; preds = %24, %Vec_PtrSort.exit
  %.1.lcssa = phi i32 [ %.028, %Vec_PtrSort.exit ], [ %27, %24 ]
  %indvars.iv.next32 = add nsw i64 %indvars.iv31, 1
  %33 = load ptr, ptr %3, align 8
  %34 = getelementptr i8, ptr %33, i64 4
  %.val19 = load i32, ptr %34, align 4
  %35 = sext i32 %.val19 to i64
  %36 = icmp slt i64 %indvars.iv.next32, %35
  br i1 %36, label %9, label %.critedge, !llvm.loop !17

.critedge:                                        ; preds = %.critedge2, %2
  ret void
}